; Function Attrs: nounwind uwtable
define internal noundef i32 @H5S__point_release(ptr noundef captures(none) %0) #0 {
  %2 = load i8, ptr @H5S_init_g, align 1, !tbaa !3, !range !7, !noundef !8
  %3 = trunc nuw i8 %2 to i1
  %4 = load i8, ptr @H5_libterm_g, align 1, !range !7
  %5 = trunc nuw i8 %4 to i1
  %6 = xor i1 %5, true
  %7 = select i1 %3, i1 true, i1 %6
  br i1 %7, label %8, label %17, !prof !9

8:                                                ; preds = %1
  %9 = getelementptr inbounds nuw i8, ptr %0, i64 360
  %10 = load ptr, ptr %9, align 8, !tbaa !10
  %11 = getelementptr inbounds nuw i8, ptr %10, i64 512
  %12 = load ptr, ptr %11, align 8, !tbaa !22
  %.not6.i = icmp eq ptr %12, null
  br i1 %.not6.i, label %H5S__free_pnt_list.exit, label %.lr.ph.i

.lr.ph.i:                                         ; preds = %8, %.lr.ph.i
  %.07.i = phi ptr [ %13, %.lr.ph.i ], [ %12, %8 ]
  %13 = load ptr, ptr %.07.i, align 8, !tbaa !25
  %14 = tail call ptr @H5FL_arr_free(ptr noundef nonnull @H5_hcoords_t_arr_free_list, ptr noundef nonnull %.07.i) #15
  %.not.i = icmp eq ptr %13, null
  br i1 %.not.i, label %H5S__free_pnt_list.exit, label %.lr.ph.i, !llvm.loop !26

H5S__free_pnt_list.exit:                          ; preds = %.lr.ph.i, %8
  %15 = tail call ptr @H5FL_reg_free(ptr noundef nonnull @H5_H5S_pnt_list_t_reg_free_list, ptr noundef %10) #15
  %16 = getelementptr inbounds nuw i8, ptr %0, i64 352
  tail call void @llvm.memset.p0.i64(ptr noundef nonnull align 8 dereferenceable(16) %16, i8 0, i64 16, i1 false)
  br label %17

17:                                               ; preds = %H5S__free_pnt_list.exit, %1
  ret i32 0
}